target datalayout = "e-m:e-p270:32:32-p271:32:32-p272:64:64-i64:64-f80:128-n8:16:32:64-S128"
target triple = "x86_64-pc-linux-gnu"

@.str = private unnamed_addr constant [3 x i8] c"%d\00", align 1
@.str.1 = private unnamed_addr constant [6 x i8] c"%s %s\00", align 1
@.str.2 = private unnamed_addr constant [4 x i8] c"%s\0A\00", align 1

; Function Attrs: noinline nounwind uwtable
define dso_local void @main() #0 {
  %1 = alloca i32, align 4
  %2 = alloca i32, align 4
  %3 = alloca i32, align 4
  %4 = alloca i32, align 4
  %5 = alloca i32, align 4
  %6 = alloca i32, align 4
  %7 = alloca [100 x [100 x i8]], align 16
  %8 = alloca [100 x [100 x i8]], align 16
  %9 = alloca [100 x [100 x i8]], align 16
  %10 = call i32 (i8*, ...) @__isoc99_scanf(i8* getelementptr inbounds ([3 x i8], [3 x i8]* @.str, i64 0, i64 0), i32* %1)
  store i32 1, i32* %2, align 4
  br label %11

11:                                               ; preds = %25, %0
  %12 = load i32, i32* %2, align 4
  %13 = load i32, i32* %1, align 4
  %14 = icmp sle i32 %12, %13
  br i1 %14, label %15, label %28

15:                                               ; preds = %11
  %16 = load i32, i32* %2, align 4
  %17 = sext i32 %16 to i64
  %18 = getelementptr inbounds [100 x [100 x i8]], [100 x [100 x i8]]* %7, i64 0, i64 %17
  %19 = getelementptr inbounds [100 x i8], [100 x i8]* %18, i64 0, i64 0
  %20 = load i32, i32* %2, align 4
  %21 = sext i32 %20 to i64
  %22 = getelementptr inbounds [100 x [100 x i8]], [100 x [100 x i8]]* %8, i64 0, i64 %21
  %23 = getelementptr inbounds [100 x i8], [100 x i8]* %22, i64 0, i64 0
  %24 = call i32 (i8*, ...) @__isoc99_scanf(i8* getelementptr inbounds ([6 x i8], [6 x i8]* @.str.1, i64 0, i64 0), i8* %19, i8* %23)
  br label %25

25:                                               ; preds = %15
  %26 = load i32, i32* %2, align 4
  %27 = add nsw i32 %26, 1
  store i32 %27, i32* %2, align 4
  br label %11

28:                                               ; preds = %11
  store i32 1, i32* %2, align 4
  br label %29

29:                                               ; preds = %90, %28
  %30 = load i32, i32* %2, align 4
  %31 = load i32, i32* %1, align 4
  %32 = icmp sle i32 %30, %31
  br i1 %32, label %33, label %93

33:                                               ; preds = %29
  %34 = load i32, i32* %2, align 4
  %35 = sext i32 %34 to i64
  %36 = getelementptr inbounds [100 x [100 x i8]], [100 x [100 x i8]]* %7, i64 0, i64 %35
  %37 = getelementptr inbounds [100 x i8], [100 x i8]* %36, i64 0, i64 0
  %38 = call i64 @strlen(i8* %37) #3
  %39 = load i32, i32* %2, align 4
  %40 = sext i32 %39 to i64
  %41 = getelementptr inbounds [100 x [100 x i8]], [100 x [100 x i8]]* %8, i64 0, i64 %40
  %42 = getelementptr inbounds [100 x i8], [100 x i8]* %41, i64 0, i64 0
  %43 = call i64 @strlen(i8* %42) #3
  %44 = sub i64 %38, %43
  %45 = trunc i64 %44 to i32
  store i32 %45, i32* %3, align 4
  %46 = load i32, i32* %2, align 4
  %47 = sext i32 %46 to i64
  %48 = getelementptr inbounds [100 x [100 x i8]], [100 x [100 x i8]]* %8, i64 0, i64 %47
  %49 = getelementptr inbounds [100 x i8], [100 x i8]* %48, i64 0, i64 0
  %50 = call i64 @strlen(i8* %49) #3
  %51 = trunc i64 %50 to i32
  store i32 %51, i32* %4, align 4
  br label %52

52:                                               ; preds = %71, %33
  %53 = load i32, i32* %4, align 4
  %54 = icmp sge i32 %53, 0
  br i1 %54, label %55, label %74

55:                                               ; preds = %52
  %56 = load i32, i32* %2, align 4
  %57 = sext i32 %56 to i64
  %58 = getelementptr inbounds [100 x [100 x i8]], [100 x [100 x i8]]* %8, i64 0, i64 %57
  %59 = load i32, i32* %4, align 4
  %60 = sext i32 %59 to i64
  %61 = getelementptr inbounds [100 x i8], [100 x i8]* %58, i64 0, i64 %60
  %62 = load i8, i8* %61, align 1
  %63 = load i32, i32* %2, align 4
  %64 = sext i32 %63 to i64
  %65 = getelementptr inbounds [100 x [100 x i8]], [100 x [100 x i8]]* %8, i64 0, i64 %64
  %66 = load i32, i32* %4, align 4
  %67 = load i32, i32* %3, align 4
  %68 = add nsw i32 %66, %67
  %69 = sext i32 %68 to i64
  %70 = getelementptr inbounds [100 x i8], [100 x i8]* %65, i64 0, i64 %69
  store i8 %62, i8* %70, align 1
  br label %71

71:                                               ; preds = %55
  %72 = load i32, i32* %4, align 4
  %73 = add nsw i32 %72, -1
  store i32 %73, i32* %4, align 4
  br label %52

74:                                               ; preds = %52
  store i32 0, i32* %5, align 4
  br label %75

75:                                               ; preds = %86, %74
  %76 = load i32, i32* %5, align 4
  %77 = load i32, i32* %3, align 4
  %78 = icmp slt i32 %76, %77
  br i1 %78, label %79, label %89

79:                                               ; preds = %75
  %80 = load i32, i32* %2, align 4
  %81 = sext i32 %80 to i64
  %82 = getelementptr inbounds [100 x [100 x i8]], [100 x [100 x i8]]* %8, i64 0, i64 %81
  %83 = load i32, i32* %5, align 4
  %84 = sext i32 %83 to i64
  %85 = getelementptr inbounds [100 x i8], [100 x i8]* %82, i64 0, i64 %84
  store i8 48, i8* %85, align 1
  br label %86

86:                                               ; preds = %79
  %87 = load i32, i32* %5, align 4
  %88 = add nsw i32 %87, 1
  store i32 %88, i32* %5, align 4
  br label %75

89:                                               ; preds = %75
  br label %90

90:                                               ; preds = %89
  %91 = load i32, i32* %2, align 4
  %92 = add nsw i32 %91, 1
  store i32 %92, i32* %2, align 4
  br label %29

93:                                               ; preds = %29
  store i32 1, i32* %2, align 4
  br label %94

94:                                               ; preds = %229, %93
  %95 = load i32, i32* %2, align 4
  %96 = load i32, i32* %1, align 4
  %97 = icmp sle i32 %95, %96
  br i1 %97, label %98, label %232

98:                                               ; preds = %94
  %99 = load i32, i32* %2, align 4
  %100 = sext i32 %99 to i64
  %101 = getelementptr inbounds [100 x [100 x i8]], [100 x [100 x i8]]* %7, i64 0, i64 %100
  %102 = getelementptr inbounds [100 x i8], [100 x i8]* %101, i64 0, i64 0
  %103 = call i64 @strlen(i8* %102) #3
  %104 = sub i64 %103, 1
  %105 = trunc i64 %104 to i32
  store i32 %105, i32* %6, align 4
  br label %106

106:                                              ; preds = %216, %98
  %107 = load i32, i32* %6, align 4
  %108 = icmp sge i32 %107, 0
  br i1 %108, label %109, label %219

109:                                              ; preds = %106
  %110 = load i32, i32* %2, align 4
  %111 = sext i32 %110 to i64
  %112 = getelementptr inbounds [100 x [100 x i8]], [100 x [100 x i8]]* %7, i64 0, i64 %111
  %113 = load i32, i32* %6, align 4
  %114 = sext i32 %113 to i64
  %115 = getelementptr inbounds [100 x i8], [100 x i8]* %112, i64 0, i64 %114
  %116 = load i8, i8* %115, align 1
  %117 = sext i8 %116 to i32
  %118 = load i32, i32* %2, align 4
  %119 = sext i32 %118 to i64
  %120 = getelementptr inbounds [100 x [100 x i8]], [100 x [100 x i8]]* %8, i64 0, i64 %119
  %121 = load i32, i32* %6, align 4
  %122 = sext i32 %121 to i64
  %123 = getelementptr inbounds [100 x i8], [100 x i8]* %120, i64 0, i64 %122
  %124 = load i8, i8* %123, align 1
  %125 = sext i8 %124 to i32
  %126 = icmp sge i32 %117, %125
  br i1 %126, label %127, label %153

127:                                              ; preds = %109
  %128 = load i32, i32* %2, align 4
  %129 = sext i32 %128 to i64
  %130 = getelementptr inbounds [100 x [100 x i8]], [100 x [100 x i8]]* %7, i64 0, i64 %129
  %131 = load i32, i32* %6, align 4
  %132 = sext i32 %131 to i64
  %133 = getelementptr inbounds [100 x i8], [100 x i8]* %130, i64 0, i64 %132
  %134 = load i8, i8* %133, align 1
  %135 = sext i8 %134 to i32
  %136 = load i32, i32* %2, align 4
  %137 = sext i32 %136 to i64
  %138 = getelementptr inbounds [100 x [100 x i8]], [100 x [100 x i8]]* %8, i64 0, i64 %137
  %139 = load i32, i32* %6, align 4
  %140 = sext i32 %139 to i64
  %141 = getelementptr inbounds [100 x i8], [100 x i8]* %138, i64 0, i64 %140
  %142 = load i8, i8* %141, align 1
  %143 = sext i8 %142 to i32
  %144 = sub nsw i32 %135, %143
  %145 = add nsw i32 %144, 48
  %146 = trunc i32 %145 to i8
  %147 = load i32, i32* %2, align 4
  %148 = sext i32 %147 to i64
  %149 = getelementptr inbounds [100 x [100 x i8]], [100 x [100 x i8]]* %9, i64 0, i64 %148
  %150 = load i32, i32* %6, align 4
  %151 = sext i32 %150 to i64
  %152 = getelementptr inbounds [100 x i8], [100 x i8]* %149, i64 0, i64 %151
  store i8 %146, i8* %152, align 1
  br label %153

153:                                              ; preds = %127, %109
  %154 = load i32, i32* %2, align 4
  %155 = sext i32 %154 to i64
  %156 = getelementptr inbounds [100 x [100 x i8]], [100 x [100 x i8]]* %7, i64 0, i64 %155
  %157 = load i32, i32* %6, align 4
  %158 = sext i32 %157 to i64
  %159 = getelementptr inbounds [100 x i8], [100 x i8]* %156, i64 0, i64 %158
  %160 = load i8, i8* %159, align 1
  %161 = sext i8 %160 to i32
  %162 = load i32, i32* %2, align 4
  %163 = sext i32 %162 to i64
  %164 = getelementptr inbounds [100 x [100 x i8]], [100 x [100 x i8]]* %8, i64 0, i64 %163
  %165 = load i32, i32* %6, align 4
  %166 = sext i32 %165 to i64
  %167 = getelementptr inbounds [100 x i8], [100 x i8]* %164, i64 0, i64 %166
  %168 = load i8, i8* %167, align 1
  %169 = sext i8 %168 to i32
  %170 = icmp slt i32 %161, %169
  br i1 %170, label %171, label %215

171:                                              ; preds = %153
  %172 = load i32, i32* %2, align 4
  %173 = sext i32 %172 to i64
  %174 = getelementptr inbounds [100 x [100 x i8]], [100 x [100 x i8]]* %7, i64 0, i64 %173
  %175 = load i32, i32* %6, align 4
  %176 = sext i32 %175 to i64
  %177 = getelementptr inbounds [100 x i8], [100 x i8]* %174, i64 0, i64 %176
  %178 = load i8, i8* %177, align 1
  %179 = sext i8 %178 to i32
  %180 = load i32, i32* %2, align 4
  %181 = sext i32 %180 to i64
  %182 = getelementptr inbounds [100 x [100 x i8]], [100 x [100 x i8]]* %8, i64 0, i64 %181
  %183 = load i32, i32* %6, align 4
  %184 = sext i32 %183 to i64
  %185 = getelementptr inbounds [100 x i8], [100 x i8]* %182, i64 0, i64 %184
  %186 = load i8, i8* %185, align 1
  %187 = sext i8 %186 to i32
  %188 = sub nsw i32 %179, %187
  %189 = add nsw i32 %188, 58
  %190 = trunc i32 %189 to i8
  %191 = load i32, i32* %2, align 4
  %192 = sext i32 %191 to i64
  %193 = getelementptr inbounds [100 x [100 x i8]], [100 x [100 x i8]]* %9, i64 0, i64 %192
  %194 = load i32, i32* %6, align 4
  %195 = sext i32 %194 to i64
  %196 = getelementptr inbounds [100 x i8], [100 x i8]* %193, i64 0, i64 %195
  store i8 %190, i8* %196, align 1
  %197 = load i32, i32* %2, align 4
  %198 = sext i32 %197 to i64
  %199 = getelementptr inbounds [100 x [100 x i8]], [100 x [100 x i8]]* %7, i64 0, i64 %198
  %200 = load i32, i32* %6, align 4
  %201 = sub nsw i32 %200, 1
  %202 = sext i32 %201 to i64
  %203 = getelementptr inbounds [100 x i8], [100 x i8]* %199, i64 0, i64 %202
  %204 = load i8, i8* %203, align 1
  %205 = sext i8 %204 to i32
  %206 = sub nsw i32 %205, 1
  %207 = trunc i32 %206 to i8
  %208 = load i32, i32* %2, align 4
  %209 = sext i32 %208 to i64
  %210 = getelementptr inbounds [100 x [100 x i8]], [100 x [100 x i8]]* %7, i64 0, i64 %209
  %211 = load i32, i32* %6, align 4
  %212 = sub nsw i32 %211, 1
  %213 = sext i32 %212 to i64
  %214 = getelementptr inbounds [100 x i8], [100 x i8]* %210, i64 0, i64 %213
  store i8 %207, i8* %214, align 1
  br label %215

215:                                              ; preds = %171, %153
  br label %216

216:                                              ; preds = %215
  %217 = load i32, i32* %6, align 4
  %218 = add nsw i32 %217, -1
  store i32 %218, i32* %6, align 4
  br label %106

219:                                              ; preds = %106
  %220 = load i32, i32* %2, align 4
  %221 = sext i32 %220 to i64
  %222 = getelementptr inbounds [100 x [100 x i8]], [100 x [100 x i8]]* %9, i64 0, i64 %221
  %223 = load i32, i32* %2, align 4
  %224 = sext i32 %223 to i64
  %225 = getelementptr inbounds [100 x [100 x i8]], [100 x [100 x i8]]* %7, i64 0, i64 %224
  %226 = getelementptr inbounds [100 x i8], [100 x i8]* %225, i64 0, i64 0
  %227 = call i64 @strlen(i8* %226) #3
  %228 = getelementptr inbounds [100 x i8], [100 x i8]* %222, i64 0, i64 %227
  store i8 0, i8* %228, align 1
  br label %229

229:                                              ; preds = %219
  %230 = load i32, i32* %2, align 4
  %231 = add nsw i32 %230, 1
  store i32 %231, i32* %2, align 4
  br label %94

232:                                              ; preds = %94
  store i32 1, i32* %2, align 4
  br label %233

233:                                              ; preds = %243, %232
  %234 = load i32, i32* %2, align 4
  %235 = load i32, i32* %1, align 4
  %236 = icmp sle i32 %234, %235
  br i1 %236, label %237, label %246

237:                                              ; preds = %233
  %238 = load i32, i32* %2, align 4
  %239 = sext i32 %238 to i64
  %240 = getelementptr inbounds [100 x [100 x i8]], [100 x [100 x i8]]* %9, i64 0, i64 %239
  %241 = getelementptr inbounds [100 x i8], [100 x i8]* %240, i64 0, i64 0
  %242 = call i32 (i8*, ...) @printf(i8* getelementptr inbounds ([4 x i8], [4 x i8]* @.str.2, i64 0, i64 0), i8* %241)
  br label %243

243:                                              ; preds = %237
  %244 = load i32, i32* %2, align 4
  %245 = add nsw i32 %244, 1
  store i32 %245, i32* %2, align 4
  br label %233

246:                                              ; preds = %233
  ret void
}